; Function Attrs: nounwind sspstrong uwtable
define internal noundef i64 @ossl_ec_point_set_to_infinity(i64 noundef returned %0) #0 {
  %2 = tail call ptr @rb_check_typeddata(i64 noundef %0, ptr noundef nonnull @ossl_ec_point_type) #7
  %3 = icmp eq ptr %2, null
  br i1 %3, label %4, label %6

4:                                                ; preds = %1
  %5 = load i64, ptr @eEC_POINT, align 8, !tbaa !6
  tail call void (i64, ptr, ...) @ossl_raise(i64 noundef %5, ptr noundef nonnull @.str.85) #9
  unreachable

6:                                                ; preds = %1
  %7 = load i64, ptr @id_i_group, align 8, !tbaa !6
  %8 = tail call i64 @rb_attr_get(i64 noundef %0, i64 noundef %7) #7
  %9 = tail call ptr @rb_check_typeddata(i64 noundef %8, ptr noundef nonnull @ossl_ec_group_type) #7
  %10 = icmp eq ptr %9, null
  br i1 %10, label %11, label %13

11:                                               ; preds = %6
  %12 = load i64, ptr @eEC_GROUP, align 8, !tbaa !6
  tail call void (i64, ptr, ...) @ossl_raise(i64 noundef %12, ptr noundef nonnull @.str.59) #9
  unreachable

13:                                               ; preds = %6
  %14 = tail call i32 @EC_POINT_set_to_infinity(ptr noundef nonnull %9, ptr noundef nonnull %2) #7
  %.not = icmp eq i32 %14, 1
  br i1 %.not, label %17, label %15

15:                                               ; preds = %13
  %16 = load i64, ptr @eEC_POINT, align 8, !tbaa !6
  tail call void (i64, ptr, ...) @ossl_raise(i64 noundef %16, ptr noundef nonnull @.str.107) #9
  unreachable

17:                                               ; preds = %13
  ret i64 %0
}